; Function Attrs: nounwind uwtable
define internal noundef i32 @adts_write_header(ptr noundef %0) #0 {
  %2 = getelementptr inbounds nuw i8, ptr %0, i64 24
  %3 = load ptr, ptr %2, align 8, !tbaa !4
  %4 = getelementptr inbounds nuw i8, ptr %3, i64 32
  %5 = load i32, ptr %4, align 8, !tbaa !24
  %.not = icmp eq i32 %5, 0
  br i1 %.not, label %8, label %6

6:                                                ; preds = %1
  %7 = tail call i32 @ff_id3v2_write_simple(ptr noundef nonnull %0, i32 noundef 4, ptr noundef nonnull @.str.13) #7
  br label %8

8:                                                ; preds = %6, %1
  ret i32 0
}